target datalayout = "e-m:e-p270:32:32-p271:32:32-p272:64:64-i64:64-i128:128-f80:128-n8:16:32:64-S128"
target triple = "x86_64-pc-linux-gnu"

%struct._zend_array = type { %struct._zend_refcounted_h, %union.anon.17, i32, %union.anon.19, i32, i32, i32, i32, i64, ptr }
%struct._zend_refcounted_h = type { i32, %union.anon.16 }
%union.anon.16 = type { i32 }
%union.anon.17 = type { i32 }
%union.anon.19 = type { ptr }
%struct._zend_stack = type { i32, i32, i32, ptr }
%struct._zend_executor_globals = type { %struct._zval_struct, %struct._zval_struct, [32 x ptr], ptr, ptr, %struct._zend_array, %struct._zend_array, ptr, i32, i32, ptr, ptr, ptr, ptr, ptr, ptr, i64, ptr, ptr, i32, i32, i64, i32, i32, i32, i8, i8, %struct.zend_atomic_bool_s, %struct.zend_atomic_bool_s, ptr, i64, ptr, ptr, %struct._zend_array, %struct._zend_array, i32, i8, %struct._zval_struct, %struct._zval_struct, %struct._zend_stack, %struct._zend_stack, %struct._zend_stack, ptr, i32, i32, i64, ptr, ptr, ptr, %struct._zend_objects_store, ptr, ptr, ptr, [3 x %struct._zend_op], ptr, i8, i8, i64, i32, i32, ptr, [16 x %struct._HashTableIterator], ptr, %union._zend_function, %struct._zend_op, %struct._zend_array, i64, %struct.zend_get_gc_buffer, ptr, ptr, ptr, i64, i8, i32, ptr, ptr, i64, %struct._zend_call_stack, i64, i64, [6 x ptr] }
%struct.zend_atomic_bool_s = type { i8 }
%struct._zval_struct = type { %union._zend_value, %union.anon.21, %union.anon.24 }
%union._zend_value = type { i64 }
%union.anon.21 = type { i32 }
%union.anon.24 = type { i32 }
%struct._zend_objects_store = type { ptr, i32, i32, i32 }
%struct._HashTableIterator = type { ptr, i32, i32 }
%union._zend_function = type { %struct._zend_op_array }
%struct._zend_op_array = type { i8, [3 x i8], i32, ptr, ptr, ptr, i32, i32, ptr, ptr, ptr, ptr, i32, i32, i32, i32, ptr, ptr, ptr, ptr, ptr, i32, i32, ptr, ptr, ptr, i32, i32, i32, i32, ptr, ptr, [6 x ptr] }
%struct._zend_op = type { ptr, %union._znode_op, %union._znode_op, %union._znode_op, i32, i32, i8, i8, i8, i8 }
%union._znode_op = type { i32 }
%struct.zend_get_gc_buffer = type { ptr, ptr, ptr }
%struct._zend_call_stack = type { ptr, i64 }
%struct._zend_execute_data = type { ptr, ptr, ptr, ptr, %struct._zval_struct, ptr, ptr, ptr, ptr }
%struct.anon.25 = type { i8, [3 x i8], i32, ptr, ptr, ptr, i32, i32, ptr, ptr, ptr, ptr, i32 }
%struct.anon.22 = type { i8, i8, %union.anon.23 }
%union.anon.23 = type { i16 }
%struct._zend_reference = type { %struct._zend_refcounted_h, %struct._zval_struct, %union.zend_property_info_source_list }
%union.zend_property_info_source_list = type { ptr }

@executor_globals = external global %struct._zend_executor_globals, align 8

; Function Attrs: nounwind uwtable
define internal ptr @zend_jit_assign_tmp_to_typed_ref2(ptr noundef %0, ptr noundef %1, ptr noundef %2) #0 {
  %4 = alloca ptr, align 8
  %5 = alloca ptr, align 8
  %6 = alloca ptr, align 8
  %7 = alloca ptr, align 8
  %8 = alloca ptr, align 8
  %9 = alloca ptr, align 8
  %10 = alloca ptr, align 8
  %11 = alloca ptr, align 8
  %12 = alloca ptr, align 8
  %13 = alloca ptr, align 8
  %14 = alloca i8, align 1
  %15 = alloca ptr, align 8
  %16 = alloca ptr, align 8
  %17 = alloca ptr, align 8
  %18 = alloca ptr, align 8
  %19 = alloca i32, align 4
  %20 = alloca ptr, align 8
  %21 = alloca ptr, align 8
  %22 = alloca ptr, align 8
  %23 = alloca ptr, align 8
  %24 = alloca ptr, align 8
  %25 = alloca ptr, align 8
  %26 = alloca i8, align 1
  %27 = alloca i8, align 1
  %28 = alloca ptr, align 8
  %29 = alloca ptr, align 8
  %30 = alloca ptr, align 8
  %31 = alloca ptr, align 8
  %32 = alloca ptr, align 8
  %33 = alloca ptr, align 8
  %34 = alloca i8, align 1
  %35 = alloca %struct._zval_struct, align 8
  %36 = alloca ptr, align 8
  %37 = alloca ptr, align 8
  %38 = alloca ptr, align 8
  %39 = alloca ptr, align 8
  %40 = alloca ptr, align 8
  %41 = alloca ptr, align 8
  %42 = alloca i32, align 4
  %43 = alloca ptr, align 8
  %44 = alloca ptr, align 8
  %45 = alloca ptr, align 8
  %46 = alloca ptr, align 8
  store ptr %0, ptr %44, align 8
  store ptr %1, ptr %45, align 8
  store ptr %2, ptr %46, align 8
  %47 = load ptr, ptr %44, align 8
  %48 = load ptr, ptr %45, align 8
  %49 = load ptr, ptr %46, align 8
  store ptr %47, ptr %31, align 8
  store ptr %48, ptr %32, align 8
  store ptr %49, ptr %33, align 8
  store i8 2, ptr %34, align 1
  store ptr null, ptr %37, align 8
  store ptr %35, ptr %38, align 8
  %50 = load ptr, ptr %31, align 8
  %51 = load ptr, ptr %38, align 8
  store ptr %50, ptr %51, align 8
  %52 = load ptr, ptr %38, align 8
  %53 = getelementptr inbounds %struct._zval_struct, ptr %52, i32 0, i32 1
  store i32 266, ptr %53, align 8
  %54 = load ptr, ptr %32, align 8
  %55 = load i8, ptr %34, align 1
  %56 = load ptr, ptr getelementptr inbounds (%struct._zend_executor_globals, ptr @executor_globals, i32 0, i32 17), align 8
  %57 = getelementptr inbounds %struct._zend_execute_data, ptr %56, i32 0, i32 3
  %58 = load ptr, ptr %57, align 8
  %59 = getelementptr inbounds %struct.anon.25, ptr %58, i32 0, i32 2
  %60 = load i32, ptr %59, align 4
  %61 = and i32 %60, -2147483648
  %62 = icmp ne i32 %61, 0
  store ptr %35, ptr %24, align 8
  store ptr %54, ptr %25, align 8
  store i8 %55, ptr %26, align 1
  %63 = zext i1 %62 to i8
  store i8 %63, ptr %27, align 1
  store ptr %37, ptr %28, align 8
  %64 = load ptr, ptr %24, align 8
  %65 = getelementptr inbounds %struct._zval_struct, ptr %64, i32 0, i32 1
  %66 = getelementptr inbounds %struct.anon.22, ptr %65, i32 0, i32 1
  %67 = load i8, ptr %66, align 1
  %68 = zext i8 %67 to i32
  %69 = icmp ne i32 %68, 0
  br i1 %69, label %70, label %108

70:                                               ; preds = %3
  %71 = load ptr, ptr %24, align 8
  store ptr %71, ptr %22, align 8
  %72 = load ptr, ptr %22, align 8
  %73 = getelementptr inbounds %struct._zval_struct, ptr %72, i32 0, i32 1
  %74 = load i8, ptr %73, align 8
  %75 = zext i8 %74 to i32
  %76 = icmp eq i32 %75, 10
  br i1 %76, label %77, label %104

77:                                               ; preds = %70
  %78 = load ptr, ptr %24, align 8
  %79 = load ptr, ptr %78, align 8
  %80 = getelementptr inbounds %struct._zend_reference, ptr %79, i32 0, i32 2
  %81 = load ptr, ptr %80, align 8
  %82 = icmp ne ptr %81, null
  br i1 %82, label %83, label %91

83:                                               ; preds = %77
  %84 = load ptr, ptr %24, align 8
  %85 = load ptr, ptr %25, align 8
  %86 = load i8, ptr %26, align 1
  %87 = load i8, ptr %27, align 1
  %88 = trunc i8 %87 to i1
  %89 = load ptr, ptr %28, align 8
  %90 = call ptr @zend_assign_to_typed_ref_ex(ptr noundef %84, ptr noundef %85, i8 noundef zeroext %86, i1 noundef zeroext %88, ptr noundef %89) #17
  store ptr %90, ptr %23, align 8
  br label %254

91:                                               ; preds = %77
  %92 = load ptr, ptr %24, align 8
  %93 = load ptr, ptr %92, align 8
  %94 = getelementptr inbounds %struct._zend_reference, ptr %93, i32 0, i32 1
  store ptr %94, ptr %24, align 8
  %95 = load ptr, ptr %24, align 8
  %96 = getelementptr inbounds %struct._zval_struct, ptr %95, i32 0, i32 1
  %97 = getelementptr inbounds %struct.anon.22, ptr %96, i32 0, i32 1
  %98 = load i8, ptr %97, align 1
  %99 = zext i8 %98 to i32
  %100 = icmp ne i32 %99, 0
  %101 = xor i1 %100, true
  br i1 %101, label %102, label %103

102:                                              ; preds = %91
  br label %109

103:                                              ; preds = %91
  br label %104

104:                                              ; preds = %103, %70
  %105 = load ptr, ptr %24, align 8
  %106 = load ptr, ptr %105, align 8
  %107 = load ptr, ptr %28, align 8
  store ptr %106, ptr %107, align 8
  br label %108

108:                                              ; preds = %104, %3
  br label %109

109:                                              ; preds = %108, %102
  %110 = load ptr, ptr %24, align 8
  %111 = load ptr, ptr %25, align 8
  %112 = load i8, ptr %26, align 1
  store ptr %110, ptr %12, align 8
  store ptr %111, ptr %13, align 8
  store i8 %112, ptr %14, align 1
  store ptr null, ptr %15, align 8
  %113 = load i8, ptr %14, align 1
  %114 = zext i8 %113 to i32
  %115 = and i32 %114, 12
  %116 = call i1 @llvm.is.constant.i32(i32 %115)
  br i1 %116, label %117, label %122

117:                                              ; preds = %109
  %118 = load i8, ptr %14, align 1
  %119 = zext i8 %118 to i32
  %120 = and i32 %119, 12
  %121 = icmp ne i32 %120, 0
  br i1 %121, label %123, label %136

122:                                              ; preds = %109
  br label %123

123:                                              ; preds = %122, %117
  %124 = load ptr, ptr %13, align 8
  store ptr %124, ptr %11, align 8
  %125 = load ptr, ptr %11, align 8
  %126 = getelementptr inbounds %struct._zval_struct, ptr %125, i32 0, i32 1
  %127 = load i8, ptr %126, align 8
  %128 = zext i8 %127 to i32
  %129 = icmp eq i32 %128, 10
  br i1 %129, label %130, label %136

130:                                              ; preds = %123
  %131 = load ptr, ptr %13, align 8
  %132 = load ptr, ptr %131, align 8
  store ptr %132, ptr %15, align 8
  %133 = load ptr, ptr %13, align 8
  %134 = load ptr, ptr %133, align 8
  %135 = getelementptr inbounds %struct._zend_reference, ptr %134, i32 0, i32 1
  store ptr %135, ptr %13, align 8
  br label %136

136:                                              ; preds = %130, %123, %117
  %137 = load ptr, ptr %12, align 8
  store ptr %137, ptr %16, align 8
  %138 = load ptr, ptr %13, align 8
  store ptr %138, ptr %17, align 8
  %139 = load ptr, ptr %17, align 8
  %140 = load ptr, ptr %139, align 8
  store ptr %140, ptr %18, align 8
  %141 = load ptr, ptr %17, align 8
  %142 = getelementptr inbounds %struct._zval_struct, ptr %141, i32 0, i32 1
  %143 = load i32, ptr %142, align 8
  store i32 %143, ptr %19, align 4
  %144 = load ptr, ptr %18, align 8
  %145 = load ptr, ptr %16, align 8
  store ptr %144, ptr %145, align 8
  %146 = load i32, ptr %19, align 4
  %147 = load ptr, ptr %16, align 8
  %148 = getelementptr inbounds %struct._zval_struct, ptr %147, i32 0, i32 1
  store i32 %146, ptr %148, align 8
  %149 = load i8, ptr %14, align 1
  %150 = zext i8 %149 to i32
  %151 = icmp eq i32 %150, 1
  %152 = zext i1 %151 to i32
  %153 = call i1 @llvm.is.constant.i32(i32 %152)
  br i1 %153, label %154, label %158

154:                                              ; preds = %136
  %155 = load i8, ptr %14, align 1
  %156 = zext i8 %155 to i32
  %157 = icmp eq i32 %156, 1
  br i1 %157, label %159, label %179

158:                                              ; preds = %136
  br label %179

159:                                              ; preds = %154
  %160 = load ptr, ptr %12, align 8
  %161 = getelementptr inbounds %struct._zval_struct, ptr %160, i32 0, i32 1
  %162 = load i32, ptr %161, align 8
  %163 = and i32 %162, 65280
  %164 = icmp ne i32 %163, 0
  br i1 %164, label %165, label %178

165:                                              ; preds = %159
  %166 = load ptr, ptr %12, align 8
  store ptr %166, ptr %6, align 8
  %167 = load ptr, ptr %6, align 8
  %168 = getelementptr inbounds %struct._zval_struct, ptr %167, i32 0, i32 1
  %169 = getelementptr inbounds %struct.anon.22, ptr %168, i32 0, i32 1
  %170 = load i8, ptr %169, align 1
  %171 = zext i8 %170 to i32
  %172 = icmp ne i32 %171, 0
  call void @llvm.assume(i1 %172)
  %173 = load ptr, ptr %6, align 8
  %174 = load ptr, ptr %173, align 8
  store ptr %174, ptr %5, align 8
  %175 = load ptr, ptr %5, align 8
  %176 = load i32, ptr %175, align 4
  %177 = add i32 %176, 1
  store i32 %177, ptr %175, align 4
  br label %178

178:                                              ; preds = %165, %159
  br label %252

179:                                              ; preds = %158, %154
  %180 = load i8, ptr %14, align 1
  %181 = zext i8 %180 to i32
  %182 = and i32 %181, 9
  %183 = icmp ne i32 %182, 0
  br i1 %183, label %184, label %204

184:                                              ; preds = %179
  %185 = load ptr, ptr %12, align 8
  %186 = getelementptr inbounds %struct._zval_struct, ptr %185, i32 0, i32 1
  %187 = load i32, ptr %186, align 8
  %188 = and i32 %187, 65280
  %189 = icmp ne i32 %188, 0
  br i1 %189, label %190, label %203

190:                                              ; preds = %184
  %191 = load ptr, ptr %12, align 8
  store ptr %191, ptr %8, align 8
  %192 = load ptr, ptr %8, align 8
  %193 = getelementptr inbounds %struct._zval_struct, ptr %192, i32 0, i32 1
  %194 = getelementptr inbounds %struct.anon.22, ptr %193, i32 0, i32 1
  %195 = load i8, ptr %194, align 1
  %196 = zext i8 %195 to i32
  %197 = icmp ne i32 %196, 0
  call void @llvm.assume(i1 %197)
  %198 = load ptr, ptr %8, align 8
  %199 = load ptr, ptr %198, align 8
  store ptr %199, ptr %7, align 8
  %200 = load ptr, ptr %7, align 8
  %201 = load i32, ptr %200, align 4
  %202 = add i32 %201, 1
  store i32 %202, ptr %200, align 4
  br label %203

203:                                              ; preds = %190, %184
  br label %251

204:                                              ; preds = %179
  %205 = load i8, ptr %14, align 1
  %206 = zext i8 %205 to i32
  %207 = icmp eq i32 %206, 4
  %208 = zext i1 %207 to i32
  %209 = call i1 @llvm.is.constant.i32(i32 %208)
  br i1 %209, label %210, label %214

210:                                              ; preds = %204
  %211 = load i8, ptr %14, align 1
  %212 = zext i8 %211 to i32
  %213 = icmp eq i32 %212, 4
  br i1 %213, label %215, label %250

214:                                              ; preds = %204
  br label %215

215:                                              ; preds = %214, %210
  %216 = load ptr, ptr %15, align 8
  %217 = icmp ne ptr %216, null
  br i1 %217, label %218, label %250

218:                                              ; preds = %215
  %219 = load ptr, ptr %15, align 8
  store ptr %219, ptr %4, align 8
  %220 = load ptr, ptr %4, align 8
  %221 = load i32, ptr %220, align 4
  %222 = icmp ugt i32 %221, 0
  call void @llvm.assume(i1 %222)
  %223 = load ptr, ptr %4, align 8
  %224 = load i32, ptr %223, align 4
  %225 = add i32 %224, -1
  store i32 %225, ptr %223, align 4
  %226 = icmp eq i32 %225, 0
  br i1 %226, label %227, label %229

227:                                              ; preds = %218
  %228 = load ptr, ptr %15, align 8
  call void @_efree_32(ptr noundef %228) #17
  br label %249

229:                                              ; preds = %218
  %230 = load ptr, ptr %12, align 8
  %231 = getelementptr inbounds %struct._zval_struct, ptr %230, i32 0, i32 1
  %232 = load i32, ptr %231, align 8
  %233 = and i32 %232, 65280
  %234 = icmp ne i32 %233, 0
  br i1 %234, label %235, label %248

235:                                              ; preds = %229
  %236 = load ptr, ptr %12, align 8
  store ptr %236, ptr %10, align 8
  %237 = load ptr, ptr %10, align 8
  %238 = getelementptr inbounds %struct._zval_struct, ptr %237, i32 0, i32 1
  %239 = getelementptr inbounds %struct.anon.22, ptr %238, i32 0, i32 1
  %240 = load i8, ptr %239, align 1
  %241 = zext i8 %240 to i32
  %242 = icmp ne i32 %241, 0
  call void @llvm.assume(i1 %242)
  %243 = load ptr, ptr %10, align 8
  %244 = load ptr, ptr %243, align 8
  store ptr %244, ptr %9, align 8
  %245 = load ptr, ptr %9, align 8
  %246 = load i32, ptr %245, align 4
  %247 = add i32 %246, 1
  store i32 %247, ptr %245, align 4
  br label %248

248:                                              ; preds = %235, %229
  br label %249

249:                                              ; preds = %248, %227
  br label %250

250:                                              ; preds = %249, %215, %210
  br label %251

251:                                              ; preds = %250, %203
  br label %252

252:                                              ; preds = %251, %178
  %253 = load ptr, ptr %24, align 8
  store ptr %253, ptr %23, align 8
  br label %254

254:                                              ; preds = %252, %83
  %255 = load ptr, ptr %23, align 8
  store ptr %255, ptr %36, align 8
  %256 = load ptr, ptr %33, align 8
  store ptr %256, ptr %39, align 8
  %257 = load ptr, ptr %36, align 8
  store ptr %257, ptr %40, align 8
  %258 = load ptr, ptr %40, align 8
  %259 = load ptr, ptr %258, align 8
  store ptr %259, ptr %41, align 8
  %260 = load ptr, ptr %40, align 8
  %261 = getelementptr inbounds %struct._zval_struct, ptr %260, i32 0, i32 1
  %262 = load i32, ptr %261, align 8
  store i32 %262, ptr %42, align 4
  %263 = load ptr, ptr %41, align 8
  %264 = load ptr, ptr %39, align 8
  store ptr %263, ptr %264, align 8
  %265 = load i32, ptr %42, align 4
  %266 = load ptr, ptr %39, align 8
  %267 = getelementptr inbounds %struct._zval_struct, ptr %266, i32 0, i32 1
  store i32 %265, ptr %267, align 8
  %268 = load i32, ptr %42, align 4
  %269 = and i32 %268, 65280
  %270 = icmp ne i32 %269, 0
  br i1 %270, label %271, label %276

271:                                              ; preds = %254
  %272 = load ptr, ptr %41, align 8
  store ptr %272, ptr %30, align 8
  %273 = load ptr, ptr %30, align 8
  %274 = load i32, ptr %273, align 4
  %275 = add i32 %274, 1
  store i32 %275, ptr %273, align 4
  br label %276

276:                                              ; preds = %271, %254
  %277 = load ptr, ptr %37, align 8
  %278 = icmp ne ptr %277, null
  br i1 %278, label %279, label %321

279:                                              ; preds = %276
  %280 = load ptr, ptr %37, align 8
  store ptr %280, ptr %43, align 8
  %281 = load ptr, ptr %43, align 8
  store ptr %281, ptr %29, align 8
  %282 = load ptr, ptr %29, align 8
  %283 = load i32, ptr %282, align 4
  %284 = icmp ugt i32 %283, 0
  call void @llvm.assume(i1 %284)
  %285 = load ptr, ptr %29, align 8
  %286 = load i32, ptr %285, align 4
  %287 = add i32 %286, -1
  store i32 %287, ptr %285, align 4
  %288 = icmp eq i32 %287, 0
  br i1 %288, label %289, label %291

289:                                              ; preds = %279
  %290 = load ptr, ptr %43, align 8
  call void @rc_dtor_func(ptr noundef %290) #17
  br label %320

291:                                              ; preds = %279
  %292 = load ptr, ptr %43, align 8
  store ptr %292, ptr %20, align 8
  %293 = load ptr, ptr %20, align 8
  %294 = getelementptr inbounds %struct._zend_refcounted_h, ptr %293, i32 0, i32 1
  %295 = load i32, ptr %294, align 4
  %296 = icmp eq i32 %295, 26
  br i1 %296, label %297, label %311

297:                                              ; preds = %291
  %298 = load ptr, ptr %20, align 8
  %299 = getelementptr inbounds %struct._zend_reference, ptr %298, i32 0, i32 1
  store ptr %299, ptr %21, align 8
  %300 = load ptr, ptr %21, align 8
  %301 = getelementptr inbounds %struct._zval_struct, ptr %300, i32 0, i32 1
  %302 = getelementptr inbounds %struct.anon.22, ptr %301, i32 0, i32 1
  %303 = load i8, ptr %302, align 1
  %304 = zext i8 %303 to i32
  %305 = and i32 %304, 2
  %306 = icmp ne i32 %305, 0
  br i1 %306, label %308, label %307

307:                                              ; preds = %297
  br label %319

308:                                              ; preds = %297
  %309 = load ptr, ptr %21, align 8
  %310 = load ptr, ptr %309, align 8
  store ptr %310, ptr %20, align 8
  br label %311

311:                                              ; preds = %308, %291
  %312 = load ptr, ptr %20, align 8
  %313 = getelementptr inbounds %struct._zend_refcounted_h, ptr %312, i32 0, i32 1
  %314 = load i32, ptr %313, align 4
  %315 = and i32 %314, -1008
  %316 = icmp eq i32 %315, 0
  br i1 %316, label %317, label %319

317:                                              ; preds = %311
  %318 = load ptr, ptr %20, align 8
  call void @gc_possible_root(ptr noundef %318) #17
  br label %319

319:                                              ; preds = %317, %311, %307
  br label %320

320:                                              ; preds = %319, %289
  br label %321

321:                                              ; preds = %320, %276
  %322 = load ptr, ptr %36, align 8
  ret ptr %322
}