; Function Attrs: nounwind uwtable
define internal ptr @zend_jit_assign_tmp_to_typed_ref2(ptr noundef %0, ptr noundef %1, ptr nocapture noundef writeonly %2) #0 {
  %4 = alloca %struct._zval_struct, align 8
  %5 = alloca ptr, align 8
  store ptr null, ptr %5, align 8
  store ptr %0, ptr %4, align 8
  %6 = getelementptr inbounds i8, ptr %4, i64 8
  store i32 266, ptr %6, align 8
  %7 = getelementptr inbounds i8, ptr %0, i64 24
  %8 = load ptr, ptr %7, align 8
  %.not97 = icmp eq ptr %8, null
  br i1 %.not97, label %17, label %9

9:                                                ; preds = %3
  %10 = load ptr, ptr getelementptr inbounds (%struct._zend_executor_globals, ptr @executor_globals, i64 0, i32 17), align 8
  %11 = getelementptr inbounds i8, ptr %10, i64 24
  %12 = load ptr, ptr %11, align 8
  %13 = getelementptr inbounds i8, ptr %12, i64 4
  %14 = load i32, ptr %13, align 4
  %15 = icmp slt i32 %14, 0
  %16 = call ptr @zend_assign_to_typed_ref_ex(ptr noundef nonnull %4, ptr noundef %1, i8 noundef zeroext 2, i1 noundef zeroext %15, ptr noundef nonnull %5) #32
  %.pre = load ptr, ptr %16, align 8
  %.phi.trans.insert = getelementptr inbounds i8, ptr %16, i64 8
  %.pre103 = load i32, ptr %.phi.trans.insert, align 8
  br label %28

17:                                               ; preds = %3
  %18 = getelementptr inbounds i8, ptr %0, i64 8
  %19 = getelementptr inbounds i8, ptr %0, i64 17
  %20 = load i8, ptr %19, align 1
  %.not98 = icmp eq i8 %20, 0
  br i1 %.not98, label %23, label %21

21:                                               ; preds = %17
  %22 = load ptr, ptr %18, align 8
  store ptr %22, ptr %5, align 8
  br label %23

23:                                               ; preds = %21, %17
  %24 = load ptr, ptr %1, align 8
  %25 = getelementptr inbounds i8, ptr %1, i64 8
  %26 = load i32, ptr %25, align 8
  store ptr %24, ptr %18, align 8
  %27 = getelementptr inbounds i8, ptr %0, i64 16
  store i32 %26, ptr %27, align 8
  br label %28

28:                                               ; preds = %23, %9
  %29 = phi i32 [ %.pre103, %9 ], [ %26, %23 ]
  %30 = phi ptr [ %.pre, %9 ], [ %24, %23 ]
  %.094 = phi ptr [ %16, %9 ], [ %18, %23 ]
  store ptr %30, ptr %2, align 8
  %31 = getelementptr inbounds i8, ptr %2, i64 8
  store i32 %29, ptr %31, align 8
  %32 = and i32 %29, 65280
  %.not99 = icmp eq i32 %32, 0
  br i1 %.not99, label %36, label %33

33:                                               ; preds = %28
  %34 = load i32, ptr %30, align 4
  %35 = add i32 %34, 1
  store i32 %35, ptr %30, align 4
  br label %36

36:                                               ; preds = %33, %28
  %37 = load ptr, ptr %5, align 8
  %.not100 = icmp eq ptr %37, null
  br i1 %.not100, label %60, label %38

38:                                               ; preds = %36
  %39 = load i32, ptr %37, align 4
  %40 = icmp ne i32 %39, 0
  call void @llvm.assume(i1 %40)
  %41 = add i32 %39, -1
  store i32 %41, ptr %37, align 4
  %42 = icmp eq i32 %41, 0
  br i1 %42, label %43, label %44

43:                                               ; preds = %38
  call void @rc_dtor_func(ptr noundef nonnull %37) #32
  br label %60

44:                                               ; preds = %38
  %45 = getelementptr inbounds i8, ptr %37, i64 4
  %46 = load i32, ptr %45, align 4
  %47 = icmp eq i32 %46, 26
  br i1 %47, label %48, label %55

48:                                               ; preds = %44
  %49 = getelementptr inbounds i8, ptr %37, i64 17
  %50 = load i8, ptr %49, align 1
  %51 = and i8 %50, 2
  %.not101 = icmp eq i8 %51, 0
  br i1 %.not101, label %60, label %52

52:                                               ; preds = %48
  %53 = getelementptr inbounds i8, ptr %37, i64 8
  %54 = load ptr, ptr %53, align 8
  %.phi.trans.insert104 = getelementptr inbounds i8, ptr %54, i64 4
  %.pre105 = load i32, ptr %.phi.trans.insert104, align 4
  br label %55

55:                                               ; preds = %52, %44
  %56 = phi i32 [ %.pre105, %52 ], [ %46, %44 ]
  %.093 = phi ptr [ %54, %52 ], [ %37, %44 ]
  %57 = and i32 %56, -1008
  %58 = icmp eq i32 %57, 0
  br i1 %58, label %59, label %60

59:                                               ; preds = %55
  call void @gc_possible_root(ptr noundef nonnull %.093) #32
  br label %60

60:                                               ; preds = %43, %48, %59, %55, %36
  ret ptr %.094
}